target datalayout = "e-m:e-p270:32:32-p271:32:32-p272:64:64-i64:64-i128:128-f80:128-n8:16:32:64-S128"
target triple = "x86_64-pc-linux-gnu"

%"class.zmq::signaler_t" = type { i32, i32, i32 }

; Function Attrs: mustprogress uwtable
define void @_ZN3zmq10signaler_t6forkedEv(ptr noundef nonnull align 4 dereferenceable(12) %0) #0 align 2 {
  %2 = alloca ptr, align 8
  store ptr %0, ptr %2, align 8, !tbaa !3
  %3 = load ptr, ptr %2, align 8
  %4 = getelementptr inbounds nuw %"class.zmq::signaler_t", ptr %3, i32 0, i32 1
  %5 = load i32, ptr %4, align 4, !tbaa !11
  %6 = call i32 @close(i32 noundef %5)
  %7 = getelementptr inbounds nuw %"class.zmq::signaler_t", ptr %3, i32 0, i32 0
  %8 = load i32, ptr %7, align 4, !tbaa !8
  %9 = call i32 @close(i32 noundef %8)
  %10 = getelementptr inbounds nuw %"class.zmq::signaler_t", ptr %3, i32 0, i32 1
  %11 = getelementptr inbounds nuw %"class.zmq::signaler_t", ptr %3, i32 0, i32 0
  %12 = call noundef i32 @_ZN3zmq11make_fdpairEPiS0_(ptr noundef %10, ptr noundef %11)
  ret void
}