; Function Attrs: mustprogress uwtable
define void @_ZN3zmq10signaler_t6forkedEv(ptr noundef nonnull align 4 dereferenceable(12) %0) local_unnamed_addr #0 align 2 {
  %2 = getelementptr inbounds nuw i8, ptr %0, i64 4
  %3 = load i32, ptr %2, align 4, !tbaa !8
  %4 = tail call i32 @close(i32 noundef %3)
  %5 = load i32, ptr %0, align 4, !tbaa !3
  %6 = tail call i32 @close(i32 noundef %5)
  %7 = tail call noundef i32 @_ZN3zmq11make_fdpairEPiS0_(ptr noundef nonnull %2, ptr noundef nonnull %0)
  ret void
}